target datalayout = "e-m:e-p270:32:32-p271:32:32-p272:64:64-i64:64-i128:128-f80:128-n8:16:32:64-S128"
target triple = "x86_64-pc-linux-gnu"

%struct.X509_algor_st = type { ptr, ptr }

@.str = private unnamed_addr constant [35 x i8] c"../openssl/crypto/pkcs7/pk7_doit.c\00", align 1
@__func__.pkcs7_bio_add_digest = private unnamed_addr constant [21 x i8] c"pkcs7_bio_add_digest\00", align 1

; Function Attrs: nounwind uwtable
define internal i32 @pkcs7_bio_add_digest(ptr noundef %0, ptr noundef %1, ptr noundef %2) #0 {
  %4 = alloca i32, align 4
  %5 = alloca ptr, align 8
  %6 = alloca ptr, align 8
  %7 = alloca ptr, align 8
  %8 = alloca ptr, align 8
  %9 = alloca [50 x i8], align 16
  %10 = alloca ptr, align 8
  %11 = alloca ptr, align 8
  %12 = alloca i32, align 4
  store ptr %0, ptr %5, align 8, !tbaa !73
  store ptr %1, ptr %6, align 8, !tbaa !22
  store ptr %2, ptr %7, align 8, !tbaa !34
  call void @llvm.lifetime.start.p0(i64 8, ptr %8) #5
  call void @llvm.lifetime.start.p0(i64 50, ptr %9) #5
  call void @llvm.lifetime.start.p0(i64 8, ptr %10) #5
  store ptr null, ptr %10, align 8, !tbaa !75
  call void @llvm.lifetime.start.p0(i64 8, ptr %11) #5
  %13 = call ptr @BIO_f_md()
  %14 = call ptr @BIO_new(ptr noundef %13)
  store ptr %14, ptr %8, align 8, !tbaa !20
  %15 = icmp eq ptr %14, null
  br i1 %15, label %16, label %17

16:                                               ; preds = %3
  call void @ERR_new()
  call void @ERR_set_debug(ptr noundef @.str, i32 noundef 104, ptr noundef @__func__.pkcs7_bio_add_digest)
  call void (i32, i32, ptr, ...) @ERR_set_error(i32 noundef 33, i32 noundef 524320, ptr noundef null)
  br label %67

17:                                               ; preds = %3
  %18 = getelementptr inbounds [50 x i8], ptr %9, i64 0, i64 0
  %19 = load ptr, ptr %6, align 8, !tbaa !22
  %20 = getelementptr inbounds nuw %struct.X509_algor_st, ptr %19, i32 0, i32 0
  %21 = load ptr, ptr %20, align 8, !tbaa !61
  %22 = call i32 @OBJ_obj2txt(ptr noundef %18, i32 noundef 50, ptr noundef %21, i32 noundef 0)
  %23 = call i32 @ERR_set_mark()
  %24 = load ptr, ptr %7, align 8, !tbaa !34
  %25 = call ptr @ossl_pkcs7_ctx_get0_libctx(ptr noundef %24)
  %26 = getelementptr inbounds [50 x i8], ptr %9, i64 0, i64 0
  %27 = load ptr, ptr %7, align 8, !tbaa !34
  %28 = call ptr @ossl_pkcs7_ctx_get0_propq(ptr noundef %27)
  %29 = call ptr @EVP_MD_fetch(ptr noundef %25, ptr noundef %26, ptr noundef %28)
  store ptr %29, ptr %10, align 8, !tbaa !75
  %30 = load ptr, ptr %10, align 8, !tbaa !75
  %31 = icmp ne ptr %30, null
  br i1 %31, label %32, label %34

32:                                               ; preds = %17
  %33 = load ptr, ptr %10, align 8, !tbaa !75
  store ptr %33, ptr %11, align 8, !tbaa !75
  br label %37

34:                                               ; preds = %17
  %35 = getelementptr inbounds [50 x i8], ptr %9, i64 0, i64 0
  %36 = call ptr @EVP_get_digestbyname(ptr noundef %35)
  store ptr %36, ptr %11, align 8, !tbaa !75
  br label %37

37:                                               ; preds = %34, %32
  %38 = load ptr, ptr %11, align 8, !tbaa !75
  %39 = icmp eq ptr %38, null
  br i1 %39, label %40, label %42

40:                                               ; preds = %37
  %41 = call i32 @ERR_clear_last_mark()
  call void @ERR_new()
  call void @ERR_set_debug(ptr noundef @.str, i32 noundef 120, ptr noundef @__func__.pkcs7_bio_add_digest)
  call void (i32, i32, ptr, ...) @ERR_set_error(i32 noundef 33, i32 noundef 109, ptr noundef null)
  br label %67

42:                                               ; preds = %37
  %43 = call i32 @ERR_pop_to_mark()
  %44 = load ptr, ptr %8, align 8, !tbaa !20
  %45 = load ptr, ptr %11, align 8, !tbaa !75
  %46 = call i64 @BIO_ctrl(ptr noundef %44, i32 noundef 111, i64 noundef 0, ptr noundef %45)
  %47 = icmp sle i64 %46, 0
  br i1 %47, label %48, label %50

48:                                               ; preds = %42
  call void @ERR_new()
  call void @ERR_set_debug(ptr noundef @.str, i32 noundef 126, ptr noundef @__func__.pkcs7_bio_add_digest)
  call void (i32, i32, ptr, ...) @ERR_set_error(i32 noundef 33, i32 noundef 524320, ptr noundef null)
  %49 = load ptr, ptr %10, align 8, !tbaa !75
  call void @EVP_MD_free(ptr noundef %49)
  br label %67

50:                                               ; preds = %42
  %51 = load ptr, ptr %10, align 8, !tbaa !75
  call void @EVP_MD_free(ptr noundef %51)
  %52 = load ptr, ptr %5, align 8, !tbaa !73
  %53 = load ptr, ptr %52, align 8, !tbaa !20
  %54 = icmp eq ptr %53, null
  br i1 %54, label %55, label %58

55:                                               ; preds = %50
  %56 = load ptr, ptr %8, align 8, !tbaa !20
  %57 = load ptr, ptr %5, align 8, !tbaa !73
  store ptr %56, ptr %57, align 8, !tbaa !20
  br label %66

58:                                               ; preds = %50
  %59 = load ptr, ptr %5, align 8, !tbaa !73
  %60 = load ptr, ptr %59, align 8, !tbaa !20
  %61 = load ptr, ptr %8, align 8, !tbaa !20
  %62 = call ptr @BIO_push(ptr noundef %60, ptr noundef %61)
  %63 = icmp ne ptr %62, null
  br i1 %63, label %65, label %64

64:                                               ; preds = %58
  call void @ERR_new()
  call void @ERR_set_debug(ptr noundef @.str, i32 noundef 134, ptr noundef @__func__.pkcs7_bio_add_digest)
  call void (i32, i32, ptr, ...) @ERR_set_error(i32 noundef 33, i32 noundef 524320, ptr noundef null)
  br label %67

65:                                               ; preds = %58
  br label %66

66:                                               ; preds = %65, %55
  store ptr null, ptr %8, align 8, !tbaa !20
  store i32 1, ptr %4, align 4
  store i32 1, ptr %12, align 4
  br label %70

67:                                               ; preds = %64, %48, %40, %16
  %68 = load ptr, ptr %8, align 8, !tbaa !20
  %69 = call i32 @BIO_free(ptr noundef %68)
  store i32 0, ptr %4, align 4
  store i32 1, ptr %12, align 4
  br label %70

70:                                               ; preds = %67, %66
  call void @llvm.lifetime.end.p0(i64 8, ptr %11) #5
  call void @llvm.lifetime.end.p0(i64 8, ptr %10) #5
  call void @llvm.lifetime.end.p0(i64 50, ptr %9) #5
  call void @llvm.lifetime.end.p0(i64 8, ptr %8) #5
  %71 = load i32, ptr %4, align 4
  ret i32 %71
}