; Function Attrs: nounwind uwtable
define internal fastcc range(i32 0, 2) i32 @pkcs7_bio_add_digest(ptr noundef nonnull captures(none) %0, ptr noundef readonly captures(none) %1, ptr noundef %2) unnamed_addr #0 {
  %4 = alloca [50 x i8], align 16
  call void @llvm.lifetime.start.p0(i64 50, ptr nonnull %4) #4
  %5 = tail call ptr @BIO_f_md() #4
  %6 = tail call ptr @BIO_new(ptr noundef %5) #4
  %7 = icmp eq ptr %6, null
  br i1 %7, label %8, label %9

8:                                                ; preds = %3
  tail call void @ERR_new() #4
  tail call void @ERR_set_debug(ptr noundef nonnull @.str, i32 noundef 104, ptr noundef nonnull @__func__.pkcs7_bio_add_digest) #4
  tail call void (i32, i32, ptr, ...) @ERR_set_error(i32 noundef 33, i32 noundef 524320, ptr noundef null) #4
  br label %32

9:                                                ; preds = %3
  %10 = load ptr, ptr %1, align 8, !tbaa !48
  %11 = call i32 @OBJ_obj2txt(ptr noundef nonnull %4, i32 noundef 50, ptr noundef %10, i32 noundef 0) #4
  %12 = call i32 @ERR_set_mark() #4
  %13 = call ptr @ossl_pkcs7_ctx_get0_libctx(ptr noundef %2) #4
  %14 = call ptr @ossl_pkcs7_ctx_get0_propq(ptr noundef %2) #4
  %15 = call ptr @EVP_MD_fetch(ptr noundef %13, ptr noundef nonnull %4, ptr noundef %14) #4
  %.not = icmp eq ptr %15, null
  br i1 %.not, label %16, label %.thread

16:                                               ; preds = %9
  %17 = call ptr @EVP_get_digestbyname(ptr noundef nonnull %4) #4
  %18 = icmp eq ptr %17, null
  br i1 %18, label %19, label %.thread

19:                                               ; preds = %16
  %20 = call i32 @ERR_clear_last_mark() #4
  call void @ERR_new() #4
  call void @ERR_set_debug(ptr noundef nonnull @.str, i32 noundef 120, ptr noundef nonnull @__func__.pkcs7_bio_add_digest) #4
  call void (i32, i32, ptr, ...) @ERR_set_error(i32 noundef 33, i32 noundef 109, ptr noundef null) #4
  br label %32

.thread:                                          ; preds = %9, %16
  %.022 = phi ptr [ %17, %16 ], [ %15, %9 ]
  %21 = call i32 @ERR_pop_to_mark() #4
  %22 = call i64 @BIO_ctrl(ptr noundef nonnull %6, i32 noundef 111, i64 noundef 0, ptr noundef nonnull %.022) #4
  %23 = icmp slt i64 %22, 1
  br i1 %23, label %24, label %25

24:                                               ; preds = %.thread
  call void @ERR_new() #4
  call void @ERR_set_debug(ptr noundef nonnull @.str, i32 noundef 126, ptr noundef nonnull @__func__.pkcs7_bio_add_digest) #4
  call void (i32, i32, ptr, ...) @ERR_set_error(i32 noundef 33, i32 noundef 524320, ptr noundef null) #4
  call void @EVP_MD_free(ptr noundef %15) #4
  br label %32

25:                                               ; preds = %.thread
  call void @EVP_MD_free(ptr noundef %15) #4
  %26 = load ptr, ptr %0, align 8, !tbaa !17
  %27 = icmp eq ptr %26, null
  br i1 %27, label %28, label %29

28:                                               ; preds = %25
  store ptr %6, ptr %0, align 8, !tbaa !17
  br label %34

29:                                               ; preds = %25
  %30 = call ptr @BIO_push(ptr noundef nonnull %26, ptr noundef nonnull %6) #4
  %.not20 = icmp eq ptr %30, null
  br i1 %.not20, label %31, label %34

31:                                               ; preds = %29
  call void @ERR_new() #4
  call void @ERR_set_debug(ptr noundef nonnull @.str, i32 noundef 134, ptr noundef nonnull @__func__.pkcs7_bio_add_digest) #4
  call void (i32, i32, ptr, ...) @ERR_set_error(i32 noundef 33, i32 noundef 524320, ptr noundef null) #4
  br label %32

32:                                               ; preds = %31, %24, %19, %8
  %33 = call i32 @BIO_free(ptr noundef %6) #4
  br label %34

34:                                               ; preds = %28, %29, %32
  %.016 = phi i32 [ 0, %32 ], [ 1, %29 ], [ 1, %28 ]
  call void @llvm.lifetime.end.p0(i64 50, ptr nonnull %4) #4
  ret i32 %.016
}